
stack:     file format elf64-x86-64


Disassembly of section .init:

0000000000400558 <_init>:
  400558:	48 83 ec 08          	sub    $0x8,%rsp
  40055c:	48 8b 05 95 0a 20 00 	mov    0x200a95(%rip),%rax        # 600ff8 <_DYNAMIC+0x1e0>
  400563:	48 85 c0             	test   %rax,%rax
  400566:	74 05                	je     40056d <_init+0x15>
  400568:	e8 23 00 00 00       	callq  400590 <__gmon_start__@plt>
  40056d:	48 83 c4 08          	add    $0x8,%rsp
  400571:	c3                   	retq   

Disassembly of section .plt:

0000000000400580 <__gmon_start__@plt-0x10>:
  400580:	ff 35 82 0a 20 00    	pushq  0x200a82(%rip)        # 601008 <_GLOBAL_OFFSET_TABLE_+0x8>
  400586:	ff 25 84 0a 20 00    	jmpq   *0x200a84(%rip)        # 601010 <_GLOBAL_OFFSET_TABLE_+0x10>
  40058c:	0f 1f 40 00          	nopl   0x0(%rax)

0000000000400590 <__gmon_start__@plt>:
  400590:	ff 25 82 0a 20 00    	jmpq   *0x200a82(%rip)        # 601018 <_GLOBAL_OFFSET_TABLE_+0x18>
  400596:	68 00 00 00 00       	pushq  $0x0
  40059b:	e9 e0 ff ff ff       	jmpq   400580 <_init+0x28>

00000000004005a0 <_ZNSt8ios_base4InitC1Ev@plt>:
  4005a0:	ff 25 7a 0a 20 00    	jmpq   *0x200a7a(%rip)        # 601020 <_GLOBAL_OFFSET_TABLE_+0x20>
  4005a6:	68 01 00 00 00       	pushq  $0x1
  4005ab:	e9 d0 ff ff ff       	jmpq   400580 <_init+0x28>

00000000004005b0 <__libc_start_main@plt>:
  4005b0:	ff 25 72 0a 20 00    	jmpq   *0x200a72(%rip)        # 601028 <_GLOBAL_OFFSET_TABLE_+0x28>
  4005b6:	68 02 00 00 00       	pushq  $0x2
  4005bb:	e9 c0 ff ff ff       	jmpq   400580 <_init+0x28>

00000000004005c0 <__cxa_atexit@plt>:
  4005c0:	ff 25 6a 0a 20 00    	jmpq   *0x200a6a(%rip)        # 601030 <_GLOBAL_OFFSET_TABLE_+0x30>
  4005c6:	68 03 00 00 00       	pushq  $0x3
  4005cb:	e9 b0 ff ff ff       	jmpq   400580 <_init+0x28>

00000000004005d0 <_ZNSt8ios_base4InitD1Ev@plt>:
  4005d0:	ff 25 62 0a 20 00    	jmpq   *0x200a62(%rip)        # 601038 <_GLOBAL_OFFSET_TABLE_+0x38>
  4005d6:	68 04 00 00 00       	pushq  $0x4
  4005db:	e9 a0 ff ff ff       	jmpq   400580 <_init+0x28>

Disassembly of section .text:

00000000004005e0 <_start>:
  4005e0:	31 ed                	xor    %ebp,%ebp
  4005e2:	49 89 d1             	mov    %rdx,%r9
  4005e5:	5e                   	pop    %rsi
  4005e6:	48 89 e2             	mov    %rsp,%rdx
  4005e9:	48 83 e4 f0          	and    $0xfffffffffffffff0,%rsp
  4005ed:	50                   	push   %rax
  4005ee:	54                   	push   %rsp
  4005ef:	49 c7 c0 60 08 40 00 	mov    $0x400860,%r8
  4005f6:	48 c7 c1 f0 07 40 00 	mov    $0x4007f0,%rcx
  4005fd:	48 c7 c7 46 07 40 00 	mov    $0x400746,%rdi
  400604:	e8 a7 ff ff ff       	callq  4005b0 <__libc_start_main@plt>
  400609:	f4                   	hlt    
  40060a:	66 0f 1f 44 00 00    	nopw   0x0(%rax,%rax,1)

0000000000400610 <deregister_tm_clones>:
  400610:	b8 57 10 60 00       	mov    $0x601057,%eax
  400615:	55                   	push   %rbp
  400616:	48 2d 50 10 60 00    	sub    $0x601050,%rax
  40061c:	48 83 f8 0e          	cmp    $0xe,%rax
  400620:	48 89 e5             	mov    %rsp,%rbp
  400623:	77 02                	ja     400627 <deregister_tm_clones+0x17>
  400625:	5d                   	pop    %rbp
  400626:	c3                   	retq   
  400627:	b8 00 00 00 00       	mov    $0x0,%eax
  40062c:	48 85 c0             	test   %rax,%rax
  40062f:	74 f4                	je     400625 <deregister_tm_clones+0x15>
  400631:	5d                   	pop    %rbp
  400632:	bf 50 10 60 00       	mov    $0x601050,%edi
  400637:	ff e0                	jmpq   *%rax
  400639:	0f 1f 80 00 00 00 00 	nopl   0x0(%rax)

0000000000400640 <register_tm_clones>:
  400640:	b8 50 10 60 00       	mov    $0x601050,%eax
  400645:	55                   	push   %rbp
  400646:	48 2d 50 10 60 00    	sub    $0x601050,%rax
  40064c:	48 c1 f8 03          	sar    $0x3,%rax
  400650:	48 89 e5             	mov    %rsp,%rbp
  400653:	48 89 c2             	mov    %rax,%rdx
  400656:	48 c1 ea 3f          	shr    $0x3f,%rdx
  40065a:	48 01 d0             	add    %rdx,%rax
  40065d:	48 d1 f8             	sar    %rax
  400660:	75 02                	jne    400664 <register_tm_clones+0x24>
  400662:	5d                   	pop    %rbp
  400663:	c3                   	retq   
  400664:	ba 00 00 00 00       	mov    $0x0,%edx
  400669:	48 85 d2             	test   %rdx,%rdx
  40066c:	74 f4                	je     400662 <register_tm_clones+0x22>
  40066e:	5d                   	pop    %rbp
  40066f:	48 89 c6             	mov    %rax,%rsi
  400672:	bf 50 10 60 00       	mov    $0x601050,%edi
  400677:	ff e2                	jmpq   *%rdx
  400679:	0f 1f 80 00 00 00 00 	nopl   0x0(%rax)

0000000000400680 <__do_global_dtors_aux>:
  400680:	80 3d c9 09 20 00 00 	cmpb   $0x0,0x2009c9(%rip)        # 601050 <__TMC_END__>
  400687:	75 11                	jne    40069a <__do_global_dtors_aux+0x1a>
  400689:	55                   	push   %rbp
  40068a:	48 89 e5             	mov    %rsp,%rbp
  40068d:	e8 7e ff ff ff       	callq  400610 <deregister_tm_clones>
  400692:	5d                   	pop    %rbp
  400693:	c6 05 b6 09 20 00 01 	movb   $0x1,0x2009b6(%rip)        # 601050 <__TMC_END__>
  40069a:	f3 c3                	repz retq 
  40069c:	0f 1f 40 00          	nopl   0x0(%rax)

00000000004006a0 <frame_dummy>:
  4006a0:	48 83 3d 68 07 20 00 	cmpq   $0x0,0x200768(%rip)        # 600e10 <__JCR_END__>
  4006a7:	00 
  4006a8:	74 1e                	je     4006c8 <frame_dummy+0x28>
  4006aa:	b8 00 00 00 00       	mov    $0x0,%eax
  4006af:	48 85 c0             	test   %rax,%rax
  4006b2:	74 14                	je     4006c8 <frame_dummy+0x28>
  4006b4:	55                   	push   %rbp
  4006b5:	bf 10 0e 60 00       	mov    $0x600e10,%edi
  4006ba:	48 89 e5             	mov    %rsp,%rbp
  4006bd:	ff d0                	callq  *%rax
  4006bf:	5d                   	pop    %rbp
  4006c0:	e9 7b ff ff ff       	jmpq   400640 <register_tm_clones>
  4006c5:	0f 1f 00             	nopl   (%rax)
  4006c8:	e9 73 ff ff ff       	jmpq   400640 <register_tm_clones>

00000000004006cd <_Z4funcliiiii>:
#include<iostream>
using namespace std;

double func(long arg1, int arg2, int arg3, int arg4, int arg5, int arg6)
{
  4006cd:	55                   	push   %rbp
  4006ce:	48 89 e5             	mov    %rsp,%rbp
  4006d1:	48 89 7d e8          	mov    %rdi,-0x18(%rbp)
  4006d5:	89 75 e4             	mov    %esi,-0x1c(%rbp)
  4006d8:	89 55 e0             	mov    %edx,-0x20(%rbp)
  4006db:	89 4d dc             	mov    %ecx,-0x24(%rbp)
  4006de:	44 89 45 d8          	mov    %r8d,-0x28(%rbp)
  4006e2:	44 89 4d d4          	mov    %r9d,-0x2c(%rbp)
    double local=2.0;
  4006e6:	48 b8 00 00 00 00 00 	movabs $0x4000000000000000,%rax
  4006ed:	00 00 40 
  4006f0:	48 89 45 f8          	mov    %rax,-0x8(%rbp)
    local=arg6/local;
  4006f4:	f2 0f 2a 45 d4       	cvtsi2sdl -0x2c(%rbp),%xmm0
  4006f9:	f2 0f 5e 45 f8       	divsd  -0x8(%rbp),%xmm0
  4006fe:	f2 0f 11 45 f8       	movsd  %xmm0,-0x8(%rbp)
    return (arg1+arg2+arg3+arg4+arg5+local)/1.0;
  400703:	8b 45 e4             	mov    -0x1c(%rbp),%eax
  400706:	48 63 d0             	movslq %eax,%rdx
  400709:	48 8b 45 e8          	mov    -0x18(%rbp),%rax
  40070d:	48 01 c2             	add    %rax,%rdx
  400710:	8b 45 e0             	mov    -0x20(%rbp),%eax
  400713:	48 98                	cltq   
  400715:	48 01 c2             	add    %rax,%rdx
  400718:	8b 45 dc             	mov    -0x24(%rbp),%eax
  40071b:	48 98                	cltq   
  40071d:	48 01 c2             	add    %rax,%rdx
  400720:	8b 45 d8             	mov    -0x28(%rbp),%eax
  400723:	48 98                	cltq   
  400725:	48 01 d0             	add    %rdx,%rax
  400728:	f2 48 0f 2a c0       	cvtsi2sd %rax,%xmm0
  40072d:	f2 0f 58 45 f8       	addsd  -0x8(%rbp),%xmm0
  400732:	f2 0f 11 45 c8       	movsd  %xmm0,-0x38(%rbp)
  400737:	48 8b 45 c8          	mov    -0x38(%rbp),%rax
}
  40073b:	48 89 45 c8          	mov    %rax,-0x38(%rbp)
  40073f:	f2 0f 10 45 c8       	movsd  -0x38(%rbp),%xmm0
  400744:	5d                   	pop    %rbp
  400745:	c3                   	retq   

0000000000400746 <main>:

int main()
{
  400746:	55                   	push   %rbp
  400747:	48 89 e5             	mov    %rsp,%rbp
  40074a:	48 83 ec 18          	sub    $0x18,%rsp
    double result=func(0x111222333, 0x222, 0x333, 0x444, 0x555, 0x666);
  40074e:	41 b9 66 06 00 00    	mov    $0x666,%r9d
  400754:	41 b8 55 05 00 00    	mov    $0x555,%r8d
  40075a:	b9 44 04 00 00       	mov    $0x444,%ecx
  40075f:	ba 33 03 00 00       	mov    $0x333,%edx
  400764:	be 22 02 00 00       	mov    $0x222,%esi
  400769:	48 bf 33 23 22 11 01 	movabs $0x111222333,%rdi
  400770:	00 00 00 
  400773:	e8 55 ff ff ff       	callq  4006cd <_Z4funcliiiii>
  400778:	f2 0f 11 45 e8       	movsd  %xmm0,-0x18(%rbp)
  40077d:	48 8b 45 e8          	mov    -0x18(%rbp),%rax
  400781:	48 89 45 f8          	mov    %rax,-0x8(%rbp)
    return result;
  400785:	f2 0f 10 45 f8       	movsd  -0x8(%rbp),%xmm0
  40078a:	f2 0f 2c c0          	cvttsd2si %xmm0,%eax
}
  40078e:	c9                   	leaveq 
  40078f:	c3                   	retq   

0000000000400790 <_Z41__static_initialization_and_destruction_0ii>:
  400790:	55                   	push   %rbp
  400791:	48 89 e5             	mov    %rsp,%rbp
  400794:	48 83 ec 10          	sub    $0x10,%rsp
  400798:	89 7d fc             	mov    %edi,-0x4(%rbp)
  40079b:	89 75 f8             	mov    %esi,-0x8(%rbp)
  40079e:	83 7d fc 01          	cmpl   $0x1,-0x4(%rbp)
  4007a2:	75 27                	jne    4007cb <_Z41__static_initialization_and_destruction_0ii+0x3b>
  4007a4:	81 7d f8 ff ff 00 00 	cmpl   $0xffff,-0x8(%rbp)
  4007ab:	75 1e                	jne    4007cb <_Z41__static_initialization_and_destruction_0ii+0x3b>
  extern wostream wclog;	/// Linked to standard error (buffered)
#endif
  //@}

  // For construction of filebuffers for cout, cin, cerr, clog et. al.
  static ios_base::Init __ioinit;
  4007ad:	bf 51 10 60 00       	mov    $0x601051,%edi
  4007b2:	e8 e9 fd ff ff       	callq  4005a0 <_ZNSt8ios_base4InitC1Ev@plt>
  4007b7:	ba 48 10 60 00       	mov    $0x601048,%edx
  4007bc:	be 51 10 60 00       	mov    $0x601051,%esi
  4007c1:	bf d0 05 40 00       	mov    $0x4005d0,%edi
  4007c6:	e8 f5 fd ff ff       	callq  4005c0 <__cxa_atexit@plt>
  4007cb:	c9                   	leaveq 
  4007cc:	c3                   	retq   

00000000004007cd <_GLOBAL__sub_I__Z4funcliiiii>:
  4007cd:	55                   	push   %rbp
  4007ce:	48 89 e5             	mov    %rsp,%rbp
  4007d1:	be ff ff 00 00       	mov    $0xffff,%esi
  4007d6:	bf 01 00 00 00       	mov    $0x1,%edi
  4007db:	e8 b0 ff ff ff       	callq  400790 <_Z41__static_initialization_and_destruction_0ii>
  4007e0:	5d                   	pop    %rbp
  4007e1:	c3                   	retq   
  4007e2:	66 2e 0f 1f 84 00 00 	nopw   %cs:0x0(%rax,%rax,1)
  4007e9:	00 00 00 
  4007ec:	0f 1f 40 00          	nopl   0x0(%rax)

00000000004007f0 <__libc_csu_init>:
  4007f0:	41 57                	push   %r15
  4007f2:	41 89 ff             	mov    %edi,%r15d
  4007f5:	41 56                	push   %r14
  4007f7:	49 89 f6             	mov    %rsi,%r14
  4007fa:	41 55                	push   %r13
  4007fc:	49 89 d5             	mov    %rdx,%r13
  4007ff:	41 54                	push   %r12
  400801:	4c 8d 25 f0 05 20 00 	lea    0x2005f0(%rip),%r12        # 600df8 <__frame_dummy_init_array_entry>
  400808:	55                   	push   %rbp
  400809:	48 8d 2d f8 05 20 00 	lea    0x2005f8(%rip),%rbp        # 600e08 <__init_array_end>
  400810:	53                   	push   %rbx
  400811:	4c 29 e5             	sub    %r12,%rbp
  400814:	31 db                	xor    %ebx,%ebx
  400816:	48 c1 fd 03          	sar    $0x3,%rbp
  40081a:	48 83 ec 08          	sub    $0x8,%rsp
  40081e:	e8 35 fd ff ff       	callq  400558 <_init>
  400823:	48 85 ed             	test   %rbp,%rbp
  400826:	74 1e                	je     400846 <__libc_csu_init+0x56>
  400828:	0f 1f 84 00 00 00 00 	nopl   0x0(%rax,%rax,1)
  40082f:	00 
  400830:	4c 89 ea             	mov    %r13,%rdx
  400833:	4c 89 f6             	mov    %r14,%rsi
  400836:	44 89 ff             	mov    %r15d,%edi
  400839:	41 ff 14 dc          	callq  *(%r12,%rbx,8)
  40083d:	48 83 c3 01          	add    $0x1,%rbx
  400841:	48 39 eb             	cmp    %rbp,%rbx
  400844:	75 ea                	jne    400830 <__libc_csu_init+0x40>
  400846:	48 83 c4 08          	add    $0x8,%rsp
  40084a:	5b                   	pop    %rbx
  40084b:	5d                   	pop    %rbp
  40084c:	41 5c                	pop    %r12
  40084e:	41 5d                	pop    %r13
  400850:	41 5e                	pop    %r14
  400852:	41 5f                	pop    %r15
  400854:	c3                   	retq   
  400855:	66 66 2e 0f 1f 84 00 	data32 nopw %cs:0x0(%rax,%rax,1)
  40085c:	00 00 00 00 

0000000000400860 <__libc_csu_fini>:
  400860:	f3 c3                	repz retq 

Disassembly of section .fini:

0000000000400864 <_fini>:
  400864:	48 83 ec 08          	sub    $0x8,%rsp
  400868:	48 83 c4 08          	add    $0x8,%rsp
  40086c:	c3                   	retq   
